ccopy_reg
_reconstructor
p1
(cargparse
Namespace
p2
c__builtin__
object
p3
NtRp4
(dp5
S'num_epochs'
p6
I50
sS'grad_clip'
p7
F5
sS'rnn_size'
p8
I1024
sS'data_dir'
p9
S'data'
p10
sS'vocab_size'
p11
I111
sS'learning_rate'
p12
F0.002
sS'save_dir'
p13
S'save'
p14
sS'batch_size'
p15
I50
sS'decay_rate'
p16
F0.96999999999999997
sS'init_from'
p17
S'hexameter3_1024'
p18
sS'seq_length'
p19
I50
sS'num_layers'
p20
I3
sS'model'
p21
S'lstm'
p22
sS'save_every'
p23
I1000
sb.